; Function Attrs: nounwind uwtable
define range(i32 -1, 1) i32 @H5C_unpin_entry(ptr noundef %0) local_unnamed_addr #0 {
  %2 = load i8, ptr @H5C_init_g, align 1, !tbaa !3, !range !7, !noundef !8
  %3 = trunc nuw i8 %2 to i1
  %4 = load i8, ptr @H5_libterm_g, align 1, !range !7
  %5 = trunc nuw i8 %4 to i1
  %6 = select i1 %3, i1 true, i1 %5
  br i1 %6, label %7, label %.thread, !prof !9

.thread:                                          ; preds = %1
  store i8 1, ptr @H5C_init_g, align 1, !tbaa !3
  br label %10

7:                                                ; preds = %1
  %8 = xor i1 %5, true
  %9 = select i1 %3, i1 true, i1 %8
  br i1 %9, label %10, label %18, !prof !150

10:                                               ; preds = %.thread, %7
  %11 = load ptr, ptr %0, align 8, !tbaa !112
  %12 = tail call fastcc i32 @H5C__unpin_entry_from_client(ptr noundef %11, ptr noundef nonnull %0, i1 noundef zeroext true)
  %13 = icmp slt i32 %12, 0
  br i1 %13, label %14, label %18

14:                                               ; preds = %10
  %15 = load i64, ptr @H5E_CACHE_g, align 8, !tbaa !59
  %16 = load i64, ptr @H5E_CANTUNPIN_g, align 8, !tbaa !59
  %17 = tail call i32 (ptr, ptr, i32, i64, i64, ptr, ...) @H5E_printf_stack(ptr noundef nonnull @.str, ptr noundef nonnull @__func__.H5C_unpin_entry, i32 noundef 3371, i64 noundef %15, i64 noundef %16, ptr noundef nonnull @.str.51) #9
  br label %18

18:                                               ; preds = %14, %10, %7
  %.0 = phi i32 [ -1, %14 ], [ 0, %10 ], [ 0, %7 ]
  ret i32 %.0
}